(dp1
S'OriginalConfig'
p2
ccopy_reg
_reconstructor
p3
(cWMCore.Configuration
Configuration
p4
c__builtin__
object
p5
NtRp6
(dp7
S'Site'
p8
g3
(cWMCore.Configuration
ConfigSection
p9
g5
NtRp10
(dp11
S'_internal_skipChecks'
p12
I00
sS'_internal_documentation'
p13
S''
sS'_internal_settings'
p14
c__builtin__
set
p15
((lp16
S'storageSite'
p17
atRp18
sS'_internal_name'
p19
g8
sS'_internal_docstrings'
p20
(dp21
sS'_internal_children'
p22
g15
((ltRp23
sg17
S'T2_DE_DESY'
p24
sS'_internal_parent_ref'
p25
NsbsS'_internal_sections'
p26
(lp27
S'General'
p28
aS'JobType'
p29
aS'Data'
p30
ag8
asg28
g3
(g9
g5
NtRp31
(dp32
g12
I00
sg13
S''
sg14
g15
((lp33
S'workArea'
p34
aS'requestName'
p35
atRp36
sg19
g28
sg20
(dp37
sg22
g15
((ltRp38
sg35
S'SUS-RunIISummer20UL18wmLHEGEN-stau250_lsp1_ctau1000mm'
p39
sg25
Nsg34
S'crab_projects'
p40
sbsS'_internal_webapps'
p41
(lp42
sS'_internal_components'
p43
(lp44
sg30
g3
(g9
g5
NtRp45
(dp46
S'outputDatasetTag'
p47
S'GENSIM'
p48
sg12
I00
sS'splitting'
p49
S'EventBased'
p50
sS'unitsPerJob'
p51
I2000
sg13
S''
sg14
g15
((lp52
g47
aS'totalUnits'
p53
ag51
aS'inputDBS'
p54
ag49
aS'outLFNDirBase'
p55
aS'outputPrimaryDataset'
p56
aS'publication'
p57
atRp58
sg55
S'/store/user/myshched/mc/'
p59
sg19
g30
sg54
S'global'
p60
sg20
(dp61
sg22
g15
((ltRp62
sg57
I01
sg56
S'SUS-RunIISummer20UL18wmLHEGEN-stau250_lsp1_ctau1000mm-GENSIM'
p63
sg25
Nsg53
I2000000
sbsg29
g3
(g9
g5
NtRp64
(dp65
g12
I00
sg13
S''
sg14
g15
((lp66
S'psetName'
p67
aS'pluginName'
p68
aS'maxJobRuntimeMin'
p69
aS'maxMemoryMB'
p70
atRp71
sg19
g29
sg20
(dp72
sg68
S'PrivateMC'
p73
sg22
g15
((ltRp74
sg67
S'../../python/SUS-RunIISummer20UL18wmLHEGEN-stau250_lsp1_ctau1000mm_cfg.py'
p75
sg25
Nsg69
I1800
sg70
I2500
sbsbsS'voGroup'
p76
S''
sS'Server'
p77
S'cmsweb.cern.ch'
p78
sS'instance'
p79
S'prod'
p80
sS'RequestName'
p81
V211101_164313:myshched_crab_SUS-RunIISummer20UL18wmLHEGEN-stau250_lsp1_ctau1000mm
p82
sS'voRole'
p83
S'NULL'
p84
sS'Port'
p85
S''
s.